target datalayout = "e-m:e-p270:32:32-p271:32:32-p272:64:64-i64:64-i128:128-f80:128-n8:16:32:64-S128"
target triple = "x86_64-pc-linux-gnu"

; Function Attrs: alwaysinline nounwind uwtable
define internal i32 @vc1_unescape_buffer(ptr noundef %0, i32 noundef %1, ptr noundef %2) #3 {
  %4 = alloca i32, align 4
  %5 = alloca ptr, align 8
  %6 = alloca i32, align 4
  %7 = alloca ptr, align 8
  %8 = alloca i32, align 4
  %9 = alloca i32, align 4
  %10 = alloca i32, align 4
  store ptr %0, ptr %5, align 8, !tbaa !45
  store i32 %1, ptr %6, align 4, !tbaa !38
  store ptr %2, ptr %7, align 8, !tbaa !45
  call void @llvm.lifetime.start.p0(i64 4, ptr %8) #7
  store i32 0, ptr %8, align 4, !tbaa !38
  call void @llvm.lifetime.start.p0(i64 4, ptr %9) #7
  %11 = load i32, ptr %6, align 4, !tbaa !38
  %12 = icmp slt i32 %11, 4
  br i1 %12, label %13, label %29

13:                                               ; preds = %3
  store i32 0, ptr %8, align 4, !tbaa !38
  br label %14

14:                                               ; preds = %24, %13
  %15 = load i32, ptr %8, align 4, !tbaa !38
  %16 = load i32, ptr %6, align 4, !tbaa !38
  %17 = icmp slt i32 %15, %16
  br i1 %17, label %18, label %27

18:                                               ; preds = %14
  %19 = load ptr, ptr %5, align 8, !tbaa !45
  %20 = getelementptr inbounds nuw i8, ptr %19, i32 1
  store ptr %20, ptr %5, align 8, !tbaa !45
  %21 = load i8, ptr %19, align 1, !tbaa !50
  %22 = load ptr, ptr %7, align 8, !tbaa !45
  %23 = getelementptr inbounds nuw i8, ptr %22, i32 1
  store ptr %23, ptr %7, align 8, !tbaa !45
  store i8 %21, ptr %22, align 1, !tbaa !50
  br label %24

24:                                               ; preds = %18
  %25 = load i32, ptr %8, align 4, !tbaa !38
  %26 = add nsw i32 %25, 1
  store i32 %26, ptr %8, align 4, !tbaa !38
  br label %14, !llvm.loop !73

27:                                               ; preds = %14
  %28 = load i32, ptr %6, align 4, !tbaa !38
  store i32 %28, ptr %4, align 4
  store i32 1, ptr %10, align 4
  br label %93

29:                                               ; preds = %3
  store i32 0, ptr %9, align 4, !tbaa !38
  br label %30

30:                                               ; preds = %86, %29
  %31 = load i32, ptr %9, align 4, !tbaa !38
  %32 = load i32, ptr %6, align 4, !tbaa !38
  %33 = icmp slt i32 %31, %32
  br i1 %33, label %34, label %91

34:                                               ; preds = %30
  %35 = load ptr, ptr %5, align 8, !tbaa !45
  %36 = getelementptr inbounds i8, ptr %35, i64 0
  %37 = load i8, ptr %36, align 1, !tbaa !50
  %38 = zext i8 %37 to i32
  %39 = icmp eq i32 %38, 3
  br i1 %39, label %40, label %77

40:                                               ; preds = %34
  %41 = load i32, ptr %9, align 4, !tbaa !38
  %42 = icmp sge i32 %41, 2
  br i1 %42, label %43, label %77

43:                                               ; preds = %40
  %44 = load ptr, ptr %5, align 8, !tbaa !45
  %45 = getelementptr inbounds i8, ptr %44, i64 -1
  %46 = load i8, ptr %45, align 1, !tbaa !50
  %47 = icmp ne i8 %46, 0
  br i1 %47, label %77, label %48

48:                                               ; preds = %43
  %49 = load ptr, ptr %5, align 8, !tbaa !45
  %50 = getelementptr inbounds i8, ptr %49, i64 -2
  %51 = load i8, ptr %50, align 1, !tbaa !50
  %52 = icmp ne i8 %51, 0
  br i1 %52, label %77, label %53

53:                                               ; preds = %48
  %54 = load i32, ptr %9, align 4, !tbaa !38
  %55 = load i32, ptr %6, align 4, !tbaa !38
  %56 = sub nsw i32 %55, 1
  %57 = icmp slt i32 %54, %56
  br i1 %57, label %58, label %77

58:                                               ; preds = %53
  %59 = load ptr, ptr %5, align 8, !tbaa !45
  %60 = getelementptr inbounds i8, ptr %59, i64 1
  %61 = load i8, ptr %60, align 1, !tbaa !50
  %62 = zext i8 %61 to i32
  %63 = icmp slt i32 %62, 4
  br i1 %63, label %64, label %77

64:                                               ; preds = %58
  %65 = load ptr, ptr %5, align 8, !tbaa !45
  %66 = getelementptr inbounds i8, ptr %65, i64 1
  %67 = load i8, ptr %66, align 1, !tbaa !50
  %68 = load ptr, ptr %7, align 8, !tbaa !45
  %69 = load i32, ptr %8, align 4, !tbaa !38
  %70 = add nsw i32 %69, 1
  store i32 %70, ptr %8, align 4, !tbaa !38
  %71 = sext i32 %69 to i64
  %72 = getelementptr inbounds i8, ptr %68, i64 %71
  store i8 %67, ptr %72, align 1, !tbaa !50
  %73 = load ptr, ptr %5, align 8, !tbaa !45
  %74 = getelementptr inbounds nuw i8, ptr %73, i32 1
  store ptr %74, ptr %5, align 8, !tbaa !45
  %75 = load i32, ptr %9, align 4, !tbaa !38
  %76 = add nsw i32 %75, 1
  store i32 %76, ptr %9, align 4, !tbaa !38
  br label %85

77:                                               ; preds = %58, %53, %48, %43, %40, %34
  %78 = load ptr, ptr %5, align 8, !tbaa !45
  %79 = load i8, ptr %78, align 1, !tbaa !50
  %80 = load ptr, ptr %7, align 8, !tbaa !45
  %81 = load i32, ptr %8, align 4, !tbaa !38
  %82 = add nsw i32 %81, 1
  store i32 %82, ptr %8, align 4, !tbaa !38
  %83 = sext i32 %81 to i64
  %84 = getelementptr inbounds i8, ptr %80, i64 %83
  store i8 %79, ptr %84, align 1, !tbaa !50
  br label %85

85:                                               ; preds = %77, %64
  br label %86

86:                                               ; preds = %85
  %87 = load i32, ptr %9, align 4, !tbaa !38
  %88 = add nsw i32 %87, 1
  store i32 %88, ptr %9, align 4, !tbaa !38
  %89 = load ptr, ptr %5, align 8, !tbaa !45
  %90 = getelementptr inbounds nuw i8, ptr %89, i32 1
  store ptr %90, ptr %5, align 8, !tbaa !45
  br label %30, !llvm.loop !74

91:                                               ; preds = %30
  %92 = load i32, ptr %8, align 4, !tbaa !38
  store i32 %92, ptr %4, align 4
  store i32 1, ptr %10, align 4
  br label %93

93:                                               ; preds = %91, %27
  call void @llvm.lifetime.end.p0(i64 4, ptr %9) #7
  call void @llvm.lifetime.end.p0(i64 4, ptr %8) #7
  %94 = load i32, ptr %4, align 4
  ret i32 %94
}