; Function Attrs: alwaysinline nofree norecurse nosync nounwind memory(argmem: readwrite) uwtable
define internal i32 @vc1_unescape_buffer(ptr noundef readonly captures(none) %0, i32 noundef %1, ptr noundef writeonly captures(none) %2) #3 {
  %4 = icmp slt i32 %1, 4
  br i1 %4, label %.preheader, label %.preheader40

.preheader40:                                     ; preds = %3
  %5 = add nsw i32 %1, -1
  br label %11

.preheader:                                       ; preds = %3
  %6 = icmp sgt i32 %1, 0
  br i1 %6, label %.lr.ph, label %.loopexit

.lr.ph:                                           ; preds = %.preheader, %.lr.ph
  %.02847 = phi i32 [ %10, %.lr.ph ], [ 0, %.preheader ]
  %.03046 = phi ptr [ %9, %.lr.ph ], [ %2, %.preheader ]
  %.03245 = phi ptr [ %7, %.lr.ph ], [ %0, %.preheader ]
  %7 = getelementptr inbounds nuw i8, ptr %.03245, i64 1
  %8 = load i8, ptr %.03245, align 1, !tbaa !40
  %9 = getelementptr inbounds nuw i8, ptr %.03046, i64 1
  store i8 %8, ptr %.03046, align 1, !tbaa !40
  %10 = add nuw nsw i32 %.02847, 1
  %exitcond.not = icmp eq i32 %10, %1
  br i1 %exitcond.not, label %.loopexit, label %.lr.ph, !llvm.loop !98

11:                                               ; preds = %.preheader40, %31
  %indvars.iv = phi i64 [ 0, %.preheader40 ], [ %indvars.iv.next, %31 ]
  %.044 = phi i32 [ 0, %.preheader40 ], [ %32, %31 ]
  %.13342 = phi ptr [ %0, %.preheader40 ], [ %33, %31 ]
  %12 = load i8, ptr %.13342, align 1, !tbaa !40
  %13 = icmp eq i8 %12, 3
  %14 = icmp sgt i32 %.044, 1
  %or.cond = and i1 %14, %13
  br i1 %or.cond, label %15, label %29

15:                                               ; preds = %11
  %16 = getelementptr inbounds i8, ptr %.13342, i64 -1
  %17 = load i8, ptr %16, align 1, !tbaa !40
  %.not = icmp eq i8 %17, 0
  br i1 %.not, label %18, label %29

18:                                               ; preds = %15
  %19 = getelementptr inbounds i8, ptr %.13342, i64 -2
  %20 = load i8, ptr %19, align 1, !tbaa !40
  %.not37 = icmp eq i8 %20, 0
  %21 = icmp slt i32 %.044, %5
  %or.cond39 = select i1 %.not37, i1 %21, i1 false
  br i1 %or.cond39, label %22, label %29

22:                                               ; preds = %18
  %23 = getelementptr inbounds nuw i8, ptr %.13342, i64 1
  %24 = load i8, ptr %23, align 1, !tbaa !40
  %25 = icmp ult i8 %24, 4
  br i1 %25, label %26, label %29

26:                                               ; preds = %22
  %27 = getelementptr inbounds nuw i8, ptr %2, i64 %indvars.iv
  store i8 %24, ptr %27, align 1, !tbaa !40
  %28 = add nuw nsw i32 %.044, 1
  br label %31

29:                                               ; preds = %22, %18, %15, %11
  %30 = getelementptr inbounds nuw i8, ptr %2, i64 %indvars.iv
  store i8 %12, ptr %30, align 1, !tbaa !40
  br label %31

31:                                               ; preds = %26, %29
  %.234 = phi ptr [ %.13342, %29 ], [ %23, %26 ]
  %.1 = phi i32 [ %.044, %29 ], [ %28, %26 ]
  %indvars.iv.next = add nuw nsw i64 %indvars.iv, 1
  %32 = add nsw i32 %.1, 1
  %33 = getelementptr inbounds nuw i8, ptr %.234, i64 1
  %34 = icmp slt i32 %32, %1
  br i1 %34, label %11, label %.loopexit.loopexit48, !llvm.loop !99

.loopexit.loopexit48:                             ; preds = %31
  %35 = trunc nuw i64 %indvars.iv.next to i32
  br label %.loopexit

.loopexit:                                        ; preds = %.lr.ph, %.loopexit.loopexit48, %.preheader
  %.031 = phi i32 [ %1, %.preheader ], [ %35, %.loopexit.loopexit48 ], [ %1, %.lr.ph ]
  ret i32 %.031
}